; Function Attrs: mustprogress uwtable
define hidden void @hb_buffer_reset(ptr nocapture noundef %0) local_unnamed_addr #5 {
  %2 = getelementptr inbounds i8, ptr %0, i64 4
  %3 = load atomic i32, ptr %2 monotonic, align 4
  %.not.i = icmp eq i32 %3, 0
  br i1 %.not.i, label %20, label %4

4:                                                ; preds = %1
  %5 = getelementptr inbounds i8, ptr %0, i64 16
  %6 = load ptr, ptr %5, align 8
  tail call void @hb_unicode_funcs_destroy(ptr noundef %6)
  %7 = tail call ptr @hb_unicode_funcs_get_default()
  %8 = tail call ptr @hb_unicode_funcs_reference(ptr noundef %7)
  store ptr %8, ptr %5, align 8
  %9 = getelementptr inbounds i8, ptr %0, i64 24
  store i32 0, ptr %9, align 8
  %10 = getelementptr inbounds i8, ptr %0, i64 28
  store i32 0, ptr %10, align 4
  %11 = getelementptr inbounds i8, ptr %0, i64 32
  store i32 65533, ptr %11, align 8
  %12 = getelementptr inbounds i8, ptr %0, i64 36
  %13 = getelementptr inbounds i8, ptr %0, i64 80
  tail call void @llvm.memset.p0.i64(ptr noundef nonnull align 4 dereferenceable(44) %12, i8 0, i64 44, i1 false)
  store i8 1, ptr %13, align 8
  %14 = getelementptr inbounds i8, ptr %0, i64 81
  %15 = getelementptr inbounds i8, ptr %0, i64 104
  tail call void @llvm.memset.p0.i64(ptr noundef nonnull align 1 dereferenceable(15) %14, i8 0, i64 15, i1 false)
  %16 = load ptr, ptr %15, align 8
  %17 = getelementptr inbounds i8, ptr %0, i64 112
  store ptr %16, ptr %17, align 8
  %18 = getelementptr inbounds i8, ptr %0, i64 128
  %19 = getelementptr inbounds i8, ptr %0, i64 180
  store i32 0, ptr %19, align 4
  tail call void @llvm.memset.p0.i64(ptr noundef nonnull align 8 dereferenceable(50) %18, i8 0, i64 50, i1 false)
  br label %20

20:                                               ; preds = %1, %4
  ret void
}